; Function Attrs: nounwind uwtable
define internal ptr @parse_identifier(ptr noundef %0, ptr nocapture readnone %1) #1 {
  %3 = getelementptr inbounds i8, ptr %0, i64 16
  %4 = load ptr, ptr %3, align 8
  %5 = load ptr, ptr @kw_return, align 8
  %6 = icmp eq ptr %4, %5
  %7 = getelementptr inbounds i8, ptr %0, i64 48
  %8 = load i64, ptr %7, align 8
  br i1 %6, label %9, label %11

9:                                                ; preds = %2
  %10 = tail call ptr @expr_new(i32 noundef 46, i64 %8) #8
  br label %20

11:                                               ; preds = %2
  %12 = tail call ptr @expr_new(i32 noundef 34, i64 %8) #8
  %13 = load ptr, ptr %3, align 8
  %14 = getelementptr inbounds i8, ptr %12, i64 32
  store ptr %13, ptr %14, align 8
  %15 = getelementptr inbounds i8, ptr %0, i64 40
  %16 = load i32, ptr %15, align 8
  %17 = icmp eq i32 %16, 65
  %18 = getelementptr inbounds i8, ptr %12, i64 40
  %19 = zext i1 %17 to i8
  store i8 %19, ptr %18, align 8
  br label %20

20:                                               ; preds = %11, %9
  %.0 = phi ptr [ %10, %9 ], [ %12, %11 ]
  tail call void @advance(ptr noundef nonnull %0) #8
  ret ptr %.0
}